(lp0
Vhttp://www.indeed.com//rc/clk?jk=5db845e88caf9d1c
p1
aVhttp://www.indeed.com//rc/clk?jk=d69a1808b034e6c3
p2
aVhttp://www.indeed.com//rc/clk?jk=ba148ec18bc415b3
p3
aVhttp://www.indeed.com//rc/clk?jk=bd4904d4656ca89a
p4
aVhttp://www.indeed.com//rc/clk?jk=1ed4dcda6a752fe7
p5
aVhttp://www.indeed.com//rc/clk?jk=c7c6c83897704934
p6
aVhttp://www.indeed.com//rc/clk?jk=1d0a0702135fc78f
p7
aVhttp://www.indeed.com//rc/clk?jk=b1a61f7f3e40aefc
p8
aVhttp://www.indeed.com//rc/clk?jk=0708beceec0f2285
p9
aVhttp://www.indeed.com//rc/clk?jk=eed277fcb539ddcc
p10
aVhttp://www.indeed.com//rc/clk?jk=6c0c09343c72f5d5
p11
aVhttp://www.indeed.com//rc/clk?jk=173365c5868e0ee2
p12
aVhttp://www.indeed.com//rc/clk?jk=4ab261f44e37581f
p13
aVhttp://www.indeed.com//rc/clk?jk=01d19be57d679e36
p14
aVhttp://www.indeed.com//rc/clk?jk=af2f92f26ed8be47
p15
aVhttp://www.indeed.com//rc/clk?jk=640cc7ea4451584b
p16
aVhttp://www.indeed.com//rc/clk?jk=5db845e88caf9d1c
p17
aVhttp://www.indeed.com//rc/clk?jk=91d2bfe7d4293e62
p18
aVhttp://www.indeed.com//rc/clk?jk=949585c702f2edef
p19
aVhttp://www.indeed.com//rc/clk?jk=7a93c5227aa4a58e
p20
aVhttp://www.indeed.com//rc/clk?jk=c47c771c18c8f11d
p21
aVhttp://www.indeed.com//rc/clk?jk=d8b9bcbbe1da9877
p22
aVhttp://www.indeed.com//rc/clk?jk=40bbbd4368493bbd
p23
aVhttp://www.indeed.com//rc/clk?jk=1dc20580683db3d6
p24
aVhttp://www.indeed.com//rc/clk?jk=f747afb004d80597
p25
aVhttp://www.indeed.com//rc/clk?jk=4b1ad8e01f63f34b
p26
aVhttp://www.indeed.com//rc/clk?jk=a47527dc7ad3a1f5
p27
aVhttp://www.indeed.com//rc/clk?jk=a84ce829e2df8f9b
p28
aVhttp://www.indeed.com//rc/clk?jk=8161fa39d0d5e3e4
p29
aVhttp://www.indeed.com//rc/clk?jk=ce04ae01f97d12d4
p30
aVhttp://www.indeed.com//rc/clk?jk=3a6fa8cdf0fe86f8
p31
aVhttp://www.indeed.com//rc/clk?jk=f36fdf8fe10970fe
p32
aVhttp://www.indeed.com//rc/clk?jk=ff6f90a0adf28d2c
p33
aVhttp://www.indeed.com//rc/clk?jk=99fba3e6f4b3bc24
p34
aVhttp://www.indeed.com//rc/clk?jk=40fc1a26430324b5
p35
aVhttp://www.indeed.com//rc/clk?jk=2e04594b977e2e0a
p36
aVhttp://www.indeed.com//rc/clk?jk=e81dd0da728c8e41
p37
aVhttp://www.indeed.com//rc/clk?jk=e6871d4475dbbd15
p38
aVhttp://www.indeed.com//rc/clk?jk=434e7ea62e09d3cc
p39
aVhttp://www.indeed.com//rc/clk?jk=c7f2b902ba3bfbb7
p40
aVhttp://www.indeed.com//rc/clk?jk=4e8cf821fbcde811
p41
aVhttp://www.indeed.com//rc/clk?jk=3abfb908eabc12a3
p42
aVhttp://www.indeed.com//rc/clk?jk=53a81a70722afd24
p43
aVhttp://www.indeed.com//rc/clk?jk=8ea7b9354486f014
p44
aVhttp://www.indeed.com//rc/clk?jk=fe467199236d39bb
p45
aVhttp://www.indeed.com//rc/clk?jk=751f1d42d6b1145e
p46
aVhttp://www.indeed.com//rc/clk?jk=d69a1808b034e6c3
p47
aVhttp://www.indeed.com//rc/clk?jk=9cfd8c060a867370
p48
aVhttp://www.indeed.com//rc/clk?jk=9514706db66ecfc2
p49
aVhttp://www.indeed.com//rc/clk?jk=e03cb0718d639a8d
p50
aVhttp://www.indeed.com//rc/clk?jk=ba148ec18bc415b3
p51
aVhttp://www.indeed.com//rc/clk?jk=bd4904d4656ca89a
p52
aVhttp://www.indeed.com//rc/clk?jk=1ed4dcda6a752fe7
p53
aVhttp://www.indeed.com//rc/clk?jk=c7c6c83897704934
p54
aVhttp://www.indeed.com//rc/clk?jk=1d0a0702135fc78f
p55
aVhttp://www.indeed.com//rc/clk?jk=b1a61f7f3e40aefc
p56
aVhttp://www.indeed.com//rc/clk?jk=0708beceec0f2285
p57
aVhttp://www.indeed.com//rc/clk?jk=eed277fcb539ddcc
p58
aVhttp://www.indeed.com//rc/clk?jk=6c0c09343c72f5d5
p59
aVhttp://www.indeed.com//rc/clk?jk=6935d826d591bbb3
p60
aVhttp://www.indeed.com//rc/clk?jk=5b1978e9b7cecab8
p61
aVhttp://www.indeed.com//rc/clk?jk=805daf65150a6c3d
p62
aVhttp://www.indeed.com//rc/clk?jk=16427e85647cb128
p63
aVhttp://www.indeed.com//rc/clk?jk=c7b80c37550c77ea
p64
aVhttp://www.indeed.com//rc/clk?jk=5f219438ec891dbe
p65
aVhttp://www.indeed.com//rc/clk?jk=f8feb41914292602
p66
aVhttp://www.indeed.com//rc/clk?jk=9678e09df30c6200
p67
aVhttp://www.indeed.com//rc/clk?jk=6de06ff48ec22404
p68
aVhttp://www.indeed.com//rc/clk?jk=823612f18dc4ba75
p69
aVhttp://www.indeed.com//rc/clk?jk=41e0366fcff24298
p70
aVhttp://www.indeed.com//rc/clk?jk=6c59959f9abe0694
p71
aVhttp://www.indeed.com//rc/clk?jk=6b11e7ef500a142a
p72
aVhttp://www.indeed.com//rc/clk?jk=4e0697f4eca023b6
p73
aVhttp://www.indeed.com//rc/clk?jk=486b4c52265eafb7
p74
aVhttp://www.indeed.com//rc/clk?jk=03d521211f0c30b7
p75
aVhttp://www.indeed.com//rc/clk?jk=d24f318012f7e1b8
p76
aVhttp://www.indeed.com//rc/clk?jk=e903ba824e6e2baa
p77
aVhttp://www.indeed.com//rc/clk?jk=4fb46b417dafd8f3
p78
aVhttp://www.indeed.com//rc/clk?jk=1ed9f3b5fe72a5ab
p79
aVhttp://www.indeed.com//rc/clk?jk=a330c46492ec73cf
p80
aVhttp://www.indeed.com//rc/clk?jk=bd822cf52e0f8a68
p81
aVhttp://www.indeed.com//rc/clk?jk=e92db38019add399
p82
aVhttp://www.indeed.com//rc/clk?jk=555cc49d1429d897
p83
aVhttp://www.indeed.com//rc/clk?jk=61a0ddac5fcee417
p84
aVhttp://www.indeed.com//rc/clk?jk=274a7141bb47c7a3
p85
aVhttp://www.indeed.com//rc/clk?jk=8067ce751b9a55c6
p86
aVhttp://www.indeed.com//rc/clk?jk=ba148ec18bc415b3
p87
aVhttp://www.indeed.com//rc/clk?jk=bd4904d4656ca89a
p88
aVhttp://www.indeed.com//rc/clk?jk=1ed4dcda6a752fe7
p89
aVhttp://www.indeed.com//rc/clk?jk=c7c6c83897704934
p90
aVhttp://www.indeed.com//rc/clk?jk=1d0a0702135fc78f
p91
aVhttp://www.indeed.com//rc/clk?jk=b1a61f7f3e40aefc
p92
aVhttp://www.indeed.com//rc/clk?jk=0708beceec0f2285
p93
aVhttp://www.indeed.com//rc/clk?jk=eed277fcb539ddcc
p94
aVhttp://www.indeed.com//rc/clk?jk=6c0c09343c72f5d5
p95
aVhttp://www.indeed.com//rc/clk?jk=ba148ec18bc415b3
p96
aVhttp://www.indeed.com//rc/clk?jk=bd4904d4656ca89a
p97
aVhttp://www.indeed.com//rc/clk?jk=1ed4dcda6a752fe7
p98
aVhttp://www.indeed.com//rc/clk?jk=c7c6c83897704934
p99
aVhttp://www.indeed.com//rc/clk?jk=1d0a0702135fc78f
p100
aVhttp://www.indeed.com//rc/clk?jk=b1a61f7f3e40aefc
p101
aVhttp://www.indeed.com//rc/clk?jk=0708beceec0f2285
p102
aVhttp://www.indeed.com//rc/clk?jk=eed277fcb539ddcc
p103
aVhttp://www.indeed.com//rc/clk?jk=6c0c09343c72f5d5
p104
aVhttp://www.indeed.com//rc/clk?jk=c0ab35d65fc5bc45
p105
aVhttp://www.indeed.com//rc/clk?jk=3446ae0fe2b5ac49
p106
aVhttp://www.indeed.com//rc/clk?jk=af901196d54add73
p107
aVhttp://www.indeed.com//rc/clk?jk=9f50185569ec73e5
p108
aVhttp://www.indeed.com//rc/clk?jk=eb947b0c4956778a
p109
aVhttp://www.indeed.com//rc/clk?jk=ba148ec18bc415b3
p110
aVhttp://www.indeed.com//rc/clk?jk=bd4904d4656ca89a
p111
aVhttp://www.indeed.com//rc/clk?jk=1ed4dcda6a752fe7
p112
aVhttp://www.indeed.com//rc/clk?jk=c7c6c83897704934
p113
aVhttp://www.indeed.com//rc/clk?jk=1d0a0702135fc78f
p114
aVhttp://www.indeed.com//rc/clk?jk=b1a61f7f3e40aefc
p115
aVhttp://www.indeed.com//rc/clk?jk=0708beceec0f2285
p116
aVhttp://www.indeed.com//rc/clk?jk=eed277fcb539ddcc
p117
aVhttp://www.indeed.com//rc/clk?jk=6c0c09343c72f5d5
p118
aVhttp://www.indeed.com//rc/clk?jk=ba148ec18bc415b3
p119
aVhttp://www.indeed.com//rc/clk?jk=bd4904d4656ca89a
p120
aVhttp://www.indeed.com//rc/clk?jk=1ed4dcda6a752fe7
p121
aVhttp://www.indeed.com//rc/clk?jk=c7c6c83897704934
p122
aVhttp://www.indeed.com//rc/clk?jk=1d0a0702135fc78f
p123
aVhttp://www.indeed.com//rc/clk?jk=b1a61f7f3e40aefc
p124
aVhttp://www.indeed.com//rc/clk?jk=0708beceec0f2285
p125
aVhttp://www.indeed.com//rc/clk?jk=eed277fcb539ddcc
p126
aVhttp://www.indeed.com//rc/clk?jk=6c0c09343c72f5d5
p127
a.