(dp0
Vname
p1
Vwater
p2
sVgeneration
p3
(dp4
Vurl
p5
Vhttp://pokeapi.co/api/v2/generation/1/
p6
sg1
Vgeneration-i
p7
ssVdamage_relations
p8
(dp9
Vhalf_damage_from
p10
(lp11
(dp12
g5
Vhttp://pokeapi.co/api/v2/type/9/
p13
sg1
Vsteel
p14
sa(dp15
g5
Vhttp://pokeapi.co/api/v2/type/10/
p16
sg1
Vfire
p17
sa(dp18
g5
Vhttp://pokeapi.co/api/v2/type/11/
p19
sg1
Vwater
p20
sa(dp21
g5
Vhttp://pokeapi.co/api/v2/type/15/
p22
sg1
Vice
p23
sasVno_damage_from
p24
(lp25
sVhalf_damage_to
p26
(lp27
(dp28
g5
Vhttp://pokeapi.co/api/v2/type/11/
p29
sg1
Vwater
p30
sa(dp31
g5
Vhttp://pokeapi.co/api/v2/type/12/
p32
sg1
Vgrass
p33
sa(dp34
g5
Vhttp://pokeapi.co/api/v2/type/16/
p35
sg1
Vdragon
p36
sasVdouble_damage_from
p37
(lp38
(dp39
g5
Vhttp://pokeapi.co/api/v2/type/12/
p40
sg1
Vgrass
p41
sa(dp42
g5
Vhttp://pokeapi.co/api/v2/type/13/
p43
sg1
Velectric
p44
sasVno_damage_to
p45
(lp46
sVdouble_damage_to
p47
(lp48
(dp49
g5
Vhttp://pokeapi.co/api/v2/type/5/
p50
sg1
Vground
p51
sa(dp52
g5
Vhttp://pokeapi.co/api/v2/type/6/
p53
sg1
Vrock
p54
sa(dp55
g5
Vhttp://pokeapi.co/api/v2/type/10/
p56
sg1
Vfire
p57
sassVgame_indices
p58
(lp59
(dp60
g3
(dp61
g5
Vhttp://pokeapi.co/api/v2/generation/1/
p62
sg1
Vgeneration-i
p63
ssVgame_index
p64
I21
sa(dp65
g3
(dp66
g5
Vhttp://pokeapi.co/api/v2/generation/2/
p67
sg1
Vgeneration-ii
p68
ssg64
I21
sa(dp69
g3
(dp70
g5
Vhttp://pokeapi.co/api/v2/generation/3/
p71
sg1
Vgeneration-iii
p72
ssg64
I11
sa(dp73
g3
(dp74
g5
Vhttp://pokeapi.co/api/v2/generation/4/
p75
sg1
Vgeneration-iv
p76
ssg64
I11
sa(dp77
g3
(dp78
g5
Vhttp://pokeapi.co/api/v2/generation/5/
p79
sg1
Vgeneration-v
p80
ssg64
I10
sa(dp81
g3
(dp82
g5
Vhttp://pokeapi.co/api/v2/generation/6/
p83
sg1
Vgeneration-vi
p84
ssg64
I10
sasVmove_damage_class
p85
(dp86
g5
Vhttp://pokeapi.co/api/v2/move-damage-class/3/
p87
sg1
Vspecial
p88
ssVmoves
p89
(lp90
(dp91
g5
Vhttp://pokeapi.co/api/v2/move/55/
p92
sg1
Vwater-gun
p93
sa(dp94
g5
Vhttp://pokeapi.co/api/v2/move/56/
p95
sg1
Vhydro-pump
p96
sa(dp97
g5
Vhttp://pokeapi.co/api/v2/move/57/
p98
sg1
Vsurf
p99
sa(dp100
g5
Vhttp://pokeapi.co/api/v2/move/61/
p101
sg1
Vbubble-beam
p102
sa(dp103
g5
Vhttp://pokeapi.co/api/v2/move/110/
p104
sg1
Vwithdraw
p105
sa(dp106
g5
Vhttp://pokeapi.co/api/v2/move/127/
p107
sg1
Vwaterfall
p108
sa(dp109
g5
Vhttp://pokeapi.co/api/v2/move/128/
p110
sg1
Vclamp
p111
sa(dp112
g5
Vhttp://pokeapi.co/api/v2/move/145/
p113
sg1
Vbubble
p114
sa(dp115
g5
Vhttp://pokeapi.co/api/v2/move/152/
p116
sg1
Vcrabhammer
p117
sa(dp118
g5
Vhttp://pokeapi.co/api/v2/move/190/
p119
sg1
Voctazooka
p120
sa(dp121
g5
Vhttp://pokeapi.co/api/v2/move/240/
p122
sg1
Vrain-dance
p123
sa(dp124
g5
Vhttp://pokeapi.co/api/v2/move/250/
p125
sg1
Vwhirlpool
p126
sa(dp127
g5
Vhttp://pokeapi.co/api/v2/move/291/
p128
sg1
Vdive
p129
sa(dp130
g5
Vhttp://pokeapi.co/api/v2/move/308/
p131
sg1
Vhydro-cannon
p132
sa(dp133
g5
Vhttp://pokeapi.co/api/v2/move/323/
p134
sg1
Vwater-spout
p135
sa(dp136
g5
Vhttp://pokeapi.co/api/v2/move/330/
p137
sg1
Vmuddy-water
p138
sa(dp139
g5
Vhttp://pokeapi.co/api/v2/move/346/
p140
sg1
Vwater-sport
p141
sa(dp142
g5
Vhttp://pokeapi.co/api/v2/move/352/
p143
sg1
Vwater-pulse
p144
sa(dp145
g5
Vhttp://pokeapi.co/api/v2/move/362/
p146
sg1
Vbrine
p147
sa(dp148
g5
Vhttp://pokeapi.co/api/v2/move/392/
p149
sg1
Vaqua-ring
p150
sa(dp151
g5
Vhttp://pokeapi.co/api/v2/move/401/
p152
sg1
Vaqua-tail
p153
sa(dp154
g5
Vhttp://pokeapi.co/api/v2/move/453/
p155
sg1
Vaqua-jet
p156
sa(dp157
g5
Vhttp://pokeapi.co/api/v2/move/487/
p158
sg1
Vsoak
p159
sa(dp160
g5
Vhttp://pokeapi.co/api/v2/move/503/
p161
sg1
Vscald
p162
sa(dp163
g5
Vhttp://pokeapi.co/api/v2/move/518/
p164
sg1
Vwater-pledge
p165
sa(dp166
g5
Vhttp://pokeapi.co/api/v2/move/534/
p167
sg1
Vrazor-shell
p168
sa(dp169
g5
Vhttp://pokeapi.co/api/v2/move/592/
p170
sg1
Vsteam-eruption
p171
sa(dp172
g5
Vhttp://pokeapi.co/api/v2/move/594/
p173
sg1
Vwater-shuriken
p174
sa(dp175
g5
Vhttp://pokeapi.co/api/v2/move/618/
p176
sg1
Vorigin-pulse
p177
sasVpokemon
p178
(lp179
(dp180
Vslot
p181
I1
sg178
(dp182
g5
Vhttp://pokeapi.co/api/v2/pokemon/7/
p183
sg1
Vsquirtle
p184
ssa(dp185
g181
I1
sg178
(dp186
g5
Vhttp://pokeapi.co/api/v2/pokemon/8/
p187
sg1
Vwartortle
p188
ssa(dp189
g181
I1
sg178
(dp190
g5
Vhttp://pokeapi.co/api/v2/pokemon/9/
p191
sg1
Vblastoise
p192
ssa(dp193
g181
I1
sg178
(dp194
g5
Vhttp://pokeapi.co/api/v2/pokemon/54/
p195
sg1
Vpsyduck
p196
ssa(dp197
g181
I1
sg178
(dp198
g5
Vhttp://pokeapi.co/api/v2/pokemon/55/
p199
sg1
Vgolduck
p200
ssa(dp201
g181
I1
sg178
(dp202
g5
Vhttp://pokeapi.co/api/v2/pokemon/60/
p203
sg1
Vpoliwag
p204
ssa(dp205
g181
I1
sg178
(dp206
g5
Vhttp://pokeapi.co/api/v2/pokemon/61/
p207
sg1
Vpoliwhirl
p208
ssa(dp209
g181
I1
sg178
(dp210
g5
Vhttp://pokeapi.co/api/v2/pokemon/62/
p211
sg1
Vpoliwrath
p212
ssa(dp213
g181
I1
sg178
(dp214
g5
Vhttp://pokeapi.co/api/v2/pokemon/72/
p215
sg1
Vtentacool
p216
ssa(dp217
g181
I1
sg178
(dp218
g5
Vhttp://pokeapi.co/api/v2/pokemon/73/
p219
sg1
Vtentacruel
p220
ssa(dp221
g181
I1
sg178
(dp222
g5
Vhttp://pokeapi.co/api/v2/pokemon/79/
p223
sg1
Vslowpoke
p224
ssa(dp225
g181
I1
sg178
(dp226
g5
Vhttp://pokeapi.co/api/v2/pokemon/80/
p227
sg1
Vslowbro
p228
ssa(dp229
g181
I1
sg178
(dp230
g5
Vhttp://pokeapi.co/api/v2/pokemon/86/
p231
sg1
Vseel
p232
ssa(dp233
g181
I1
sg178
(dp234
g5
Vhttp://pokeapi.co/api/v2/pokemon/87/
p235
sg1
Vdewgong
p236
ssa(dp237
g181
I1
sg178
(dp238
g5
Vhttp://pokeapi.co/api/v2/pokemon/90/
p239
sg1
Vshellder
p240
ssa(dp241
g181
I1
sg178
(dp242
g5
Vhttp://pokeapi.co/api/v2/pokemon/91/
p243
sg1
Vcloyster
p244
ssa(dp245
g181
I1
sg178
(dp246
g5
Vhttp://pokeapi.co/api/v2/pokemon/98/
p247
sg1
Vkrabby
p248
ssa(dp249
g181
I1
sg178
(dp250
g5
Vhttp://pokeapi.co/api/v2/pokemon/99/
p251
sg1
Vkingler
p252
ssa(dp253
g181
I1
sg178
(dp254
g5
Vhttp://pokeapi.co/api/v2/pokemon/116/
p255
sg1
Vhorsea
p256
ssa(dp257
g181
I1
sg178
(dp258
g5
Vhttp://pokeapi.co/api/v2/pokemon/117/
p259
sg1
Vseadra
p260
ssa(dp261
g181
I1
sg178
(dp262
g5
Vhttp://pokeapi.co/api/v2/pokemon/118/
p263
sg1
Vgoldeen
p264
ssa(dp265
g181
I1
sg178
(dp266
g5
Vhttp://pokeapi.co/api/v2/pokemon/119/
p267
sg1
Vseaking
p268
ssa(dp269
g181
I1
sg178
(dp270
g5
Vhttp://pokeapi.co/api/v2/pokemon/120/
p271
sg1
Vstaryu
p272
ssa(dp273
g181
I1
sg178
(dp274
g5
Vhttp://pokeapi.co/api/v2/pokemon/121/
p275
sg1
Vstarmie
p276
ssa(dp277
g181
I1
sg178
(dp278
g5
Vhttp://pokeapi.co/api/v2/pokemon/129/
p279
sg1
Vmagikarp
p280
ssa(dp281
g181
I1
sg178
(dp282
g5
Vhttp://pokeapi.co/api/v2/pokemon/130/
p283
sg1
Vgyarados
p284
ssa(dp285
g181
I1
sg178
(dp286
g5
Vhttp://pokeapi.co/api/v2/pokemon/131/
p287
sg1
Vlapras
p288
ssa(dp289
g181
I1
sg178
(dp290
g5
Vhttp://pokeapi.co/api/v2/pokemon/134/
p291
sg1
Vvaporeon
p292
ssa(dp293
g181
I2
sg178
(dp294
g5
Vhttp://pokeapi.co/api/v2/pokemon/138/
p295
sg1
Vomanyte
p296
ssa(dp297
g181
I2
sg178
(dp298
g5
Vhttp://pokeapi.co/api/v2/pokemon/139/
p299
sg1
Vomastar
p300
ssa(dp301
g181
I2
sg178
(dp302
g5
Vhttp://pokeapi.co/api/v2/pokemon/140/
p303
sg1
Vkabuto
p304
ssa(dp305
g181
I2
sg178
(dp306
g5
Vhttp://pokeapi.co/api/v2/pokemon/141/
p307
sg1
Vkabutops
p308
ssa(dp309
g181
I1
sg178
(dp310
g5
Vhttp://pokeapi.co/api/v2/pokemon/158/
p311
sg1
Vtotodile
p312
ssa(dp313
g181
I1
sg178
(dp314
g5
Vhttp://pokeapi.co/api/v2/pokemon/159/
p315
sg1
Vcroconaw
p316
ssa(dp317
g181
I1
sg178
(dp318
g5
Vhttp://pokeapi.co/api/v2/pokemon/160/
p319
sg1
Vferaligatr
p320
ssa(dp321
g181
I1
sg178
(dp322
g5
Vhttp://pokeapi.co/api/v2/pokemon/170/
p323
sg1
Vchinchou
p324
ssa(dp325
g181
I1
sg178
(dp326
g5
Vhttp://pokeapi.co/api/v2/pokemon/171/
p327
sg1
Vlanturn
p328
ssa(dp329
g181
I1
sg178
(dp330
g5
Vhttp://pokeapi.co/api/v2/pokemon/183/
p331
sg1
Vmarill
p332
ssa(dp333
g181
I1
sg178
(dp334
g5
Vhttp://pokeapi.co/api/v2/pokemon/184/
p335
sg1
Vazumarill
p336
ssa(dp337
g181
I1
sg178
(dp338
g5
Vhttp://pokeapi.co/api/v2/pokemon/186/
p339
sg1
Vpolitoed
p340
ssa(dp341
g181
I1
sg178
(dp342
g5
Vhttp://pokeapi.co/api/v2/pokemon/194/
p343
sg1
Vwooper
p344
ssa(dp345
g181
I1
sg178
(dp346
g5
Vhttp://pokeapi.co/api/v2/pokemon/195/
p347
sg1
Vquagsire
p348
ssa(dp349
g181
I1
sg178
(dp350
g5
Vhttp://pokeapi.co/api/v2/pokemon/199/
p351
sg1
Vslowking
p352
ssa(dp353
g181
I1
sg178
(dp354
g5
Vhttp://pokeapi.co/api/v2/pokemon/211/
p355
sg1
Vqwilfish
p356
ssa(dp357
g181
I1
sg178
(dp358
g5
Vhttp://pokeapi.co/api/v2/pokemon/222/
p359
sg1
Vcorsola
p360
ssa(dp361
g181
I1
sg178
(dp362
g5
Vhttp://pokeapi.co/api/v2/pokemon/223/
p363
sg1
Vremoraid
p364
ssa(dp365
g181
I1
sg178
(dp366
g5
Vhttp://pokeapi.co/api/v2/pokemon/224/
p367
sg1
Voctillery
p368
ssa(dp369
g181
I1
sg178
(dp370
g5
Vhttp://pokeapi.co/api/v2/pokemon/226/
p371
sg1
Vmantine
p372
ssa(dp373
g181
I1
sg178
(dp374
g5
Vhttp://pokeapi.co/api/v2/pokemon/230/
p375
sg1
Vkingdra
p376
ssa(dp377
g181
I1
sg178
(dp378
g5
Vhttp://pokeapi.co/api/v2/pokemon/245/
p379
sg1
Vsuicune
p380
ssa(dp381
g181
I1
sg178
(dp382
g5
Vhttp://pokeapi.co/api/v2/pokemon/258/
p383
sg1
Vmudkip
p384
ssa(dp385
g181
I1
sg178
(dp386
g5
Vhttp://pokeapi.co/api/v2/pokemon/259/
p387
sg1
Vmarshtomp
p388
ssa(dp389
g181
I1
sg178
(dp390
g5
Vhttp://pokeapi.co/api/v2/pokemon/260/
p391
sg1
Vswampert
p392
ssa(dp393
g181
I1
sg178
(dp394
g5
Vhttp://pokeapi.co/api/v2/pokemon/270/
p395
sg1
Vlotad
p396
ssa(dp397
g181
I1
sg178
(dp398
g5
Vhttp://pokeapi.co/api/v2/pokemon/271/
p399
sg1
Vlombre
p400
ssa(dp401
g181
I1
sg178
(dp402
g5
Vhttp://pokeapi.co/api/v2/pokemon/272/
p403
sg1
Vludicolo
p404
ssa(dp405
g181
I1
sg178
(dp406
g5
Vhttp://pokeapi.co/api/v2/pokemon/278/
p407
sg1
Vwingull
p408
ssa(dp409
g181
I1
sg178
(dp410
g5
Vhttp://pokeapi.co/api/v2/pokemon/279/
p411
sg1
Vpelipper
p412
ssa(dp413
g181
I2
sg178
(dp414
g5
Vhttp://pokeapi.co/api/v2/pokemon/283/
p415
sg1
Vsurskit
p416
ssa(dp417
g181
I1
sg178
(dp418
g5
Vhttp://pokeapi.co/api/v2/pokemon/318/
p419
sg1
Vcarvanha
p420
ssa(dp421
g181
I1
sg178
(dp422
g5
Vhttp://pokeapi.co/api/v2/pokemon/319/
p423
sg1
Vsharpedo
p424
ssa(dp425
g181
I1
sg178
(dp426
g5
Vhttp://pokeapi.co/api/v2/pokemon/320/
p427
sg1
Vwailmer
p428
ssa(dp429
g181
I1
sg178
(dp430
g5
Vhttp://pokeapi.co/api/v2/pokemon/321/
p431
sg1
Vwailord
p432
ssa(dp433
g181
I1
sg178
(dp434
g5
Vhttp://pokeapi.co/api/v2/pokemon/339/
p435
sg1
Vbarboach
p436
ssa(dp437
g181
I1
sg178
(dp438
g5
Vhttp://pokeapi.co/api/v2/pokemon/340/
p439
sg1
Vwhiscash
p440
ssa(dp441
g181
I1
sg178
(dp442
g5
Vhttp://pokeapi.co/api/v2/pokemon/341/
p443
sg1
Vcorphish
p444
ssa(dp445
g181
I1
sg178
(dp446
g5
Vhttp://pokeapi.co/api/v2/pokemon/342/
p447
sg1
Vcrawdaunt
p448
ssa(dp449
g181
I1
sg178
(dp450
g5
Vhttp://pokeapi.co/api/v2/pokemon/349/
p451
sg1
Vfeebas
p452
ssa(dp453
g181
I1
sg178
(dp454
g5
Vhttp://pokeapi.co/api/v2/pokemon/350/
p455
sg1
Vmilotic
p456
ssa(dp457
g181
I2
sg178
(dp458
g5
Vhttp://pokeapi.co/api/v2/pokemon/363/
p459
sg1
Vspheal
p460
ssa(dp461
g181
I2
sg178
(dp462
g5
Vhttp://pokeapi.co/api/v2/pokemon/364/
p463
sg1
Vsealeo
p464
ssa(dp465
g181
I2
sg178
(dp466
g5
Vhttp://pokeapi.co/api/v2/pokemon/365/
p467
sg1
Vwalrein
p468
ssa(dp469
g181
I1
sg178
(dp470
g5
Vhttp://pokeapi.co/api/v2/pokemon/366/
p471
sg1
Vclamperl
p472
ssa(dp473
g181
I1
sg178
(dp474
g5
Vhttp://pokeapi.co/api/v2/pokemon/367/
p475
sg1
Vhuntail
p476
ssa(dp477
g181
I1
sg178
(dp478
g5
Vhttp://pokeapi.co/api/v2/pokemon/368/
p479
sg1
Vgorebyss
p480
ssa(dp481
g181
I1
sg178
(dp482
g5
Vhttp://pokeapi.co/api/v2/pokemon/369/
p483
sg1
Vrelicanth
p484
ssa(dp485
g181
I1
sg178
(dp486
g5
Vhttp://pokeapi.co/api/v2/pokemon/370/
p487
sg1
Vluvdisc
p488
ssa(dp489
g181
I1
sg178
(dp490
g5
Vhttp://pokeapi.co/api/v2/pokemon/382/
p491
sg1
Vkyogre
p492
ssa(dp493
g181
I1
sg178
(dp494
g5
Vhttp://pokeapi.co/api/v2/pokemon/393/
p495
sg1
Vpiplup
p496
ssa(dp497
g181
I1
sg178
(dp498
g5
Vhttp://pokeapi.co/api/v2/pokemon/394/
p499
sg1
Vprinplup
p500
ssa(dp501
g181
I1
sg178
(dp502
g5
Vhttp://pokeapi.co/api/v2/pokemon/395/
p503
sg1
Vempoleon
p504
ssa(dp505
g181
I2
sg178
(dp506
g5
Vhttp://pokeapi.co/api/v2/pokemon/400/
p507
sg1
Vbibarel
p508
ssa(dp509
g181
I1
sg178
(dp510
g5
Vhttp://pokeapi.co/api/v2/pokemon/418/
p511
sg1
Vbuizel
p512
ssa(dp513
g181
I1
sg178
(dp514
g5
Vhttp://pokeapi.co/api/v2/pokemon/419/
p515
sg1
Vfloatzel
p516
ssa(dp517
g181
I1
sg178
(dp518
g5
Vhttp://pokeapi.co/api/v2/pokemon/422/
p519
sg1
Vshellos
p520
ssa(dp521
g181
I1
sg178
(dp522
g5
Vhttp://pokeapi.co/api/v2/pokemon/423/
p523
sg1
Vgastrodon
p524
ssa(dp525
g181
I1
sg178
(dp526
g5
Vhttp://pokeapi.co/api/v2/pokemon/456/
p527
sg1
Vfinneon
p528
ssa(dp529
g181
I1
sg178
(dp530
g5
Vhttp://pokeapi.co/api/v2/pokemon/457/
p531
sg1
Vlumineon
p532
ssa(dp533
g181
I1
sg178
(dp534
g5
Vhttp://pokeapi.co/api/v2/pokemon/458/
p535
sg1
Vmantyke
p536
ssa(dp537
g181
I1
sg178
(dp538
g5
Vhttp://pokeapi.co/api/v2/pokemon/484/
p539
sg1
Vpalkia
p540
ssa(dp541
g181
I1
sg178
(dp542
g5
Vhttp://pokeapi.co/api/v2/pokemon/489/
p543
sg1
Vphione
p544
ssa(dp545
g181
I1
sg178
(dp546
g5
Vhttp://pokeapi.co/api/v2/pokemon/490/
p547
sg1
Vmanaphy
p548
ssa(dp549
g181
I1
sg178
(dp550
g5
Vhttp://pokeapi.co/api/v2/pokemon/501/
p551
sg1
Voshawott
p552
ssa(dp553
g181
I1
sg178
(dp554
g5
Vhttp://pokeapi.co/api/v2/pokemon/502/
p555
sg1
Vdewott
p556
ssa(dp557
g181
I1
sg178
(dp558
g5
Vhttp://pokeapi.co/api/v2/pokemon/503/
p559
sg1
Vsamurott
p560
ssa(dp561
g181
I1
sg178
(dp562
g5
Vhttp://pokeapi.co/api/v2/pokemon/515/
p563
sg1
Vpanpour
p564
ssa(dp565
g181
I1
sg178
(dp566
g5
Vhttp://pokeapi.co/api/v2/pokemon/516/
p567
sg1
Vsimipour
p568
ssa(dp569
g181
I1
sg178
(dp570
g5
Vhttp://pokeapi.co/api/v2/pokemon/535/
p571
sg1
Vtympole
p572
ssa(dp573
g181
I1
sg178
(dp574
g5
Vhttp://pokeapi.co/api/v2/pokemon/536/
p575
sg1
Vpalpitoad
p576
ssa(dp577
g181
I1
sg178
(dp578
g5
Vhttp://pokeapi.co/api/v2/pokemon/537/
p579
sg1
Vseismitoad
p580
ssa(dp581
g181
I1
sg178
(dp582
g5
Vhttp://pokeapi.co/api/v2/pokemon/550/
p583
sg1
Vbasculin-red-striped
p584
ssa(dp585
g181
I1
sg178
(dp586
g5
Vhttp://pokeapi.co/api/v2/pokemon/564/
p587
sg1
Vtirtouga
p588
ssa(dp589
g181
I1
sg178
(dp590
g5
Vhttp://pokeapi.co/api/v2/pokemon/565/
p591
sg1
Vcarracosta
p592
ssa(dp593
g181
I1
sg178
(dp594
g5
Vhttp://pokeapi.co/api/v2/pokemon/580/
p595
sg1
Vducklett
p596
ssa(dp597
g181
I1
sg178
(dp598
g5
Vhttp://pokeapi.co/api/v2/pokemon/581/
p599
sg1
Vswanna
p600
ssa(dp601
g181
I1
sg178
(dp602
g5
Vhttp://pokeapi.co/api/v2/pokemon/592/
p603
sg1
Vfrillish
p604
ssa(dp605
g181
I1
sg178
(dp606
g5
Vhttp://pokeapi.co/api/v2/pokemon/593/
p607
sg1
Vjellicent
p608
ssa(dp609
g181
I1
sg178
(dp610
g5
Vhttp://pokeapi.co/api/v2/pokemon/594/
p611
sg1
Valomomola
p612
ssa(dp613
g181
I1
sg178
(dp614
g5
Vhttp://pokeapi.co/api/v2/pokemon/647/
p615
sg1
Vkeldeo-ordinary
p616
ssa(dp617
g181
I1
sg178
(dp618
g5
Vhttp://pokeapi.co/api/v2/pokemon/656/
p619
sg1
Vfroakie
p620
ssa(dp621
g181
I1
sg178
(dp622
g5
Vhttp://pokeapi.co/api/v2/pokemon/657/
p623
sg1
Vfrogadier
p624
ssa(dp625
g181
I1
sg178
(dp626
g5
Vhttp://pokeapi.co/api/v2/pokemon/658/
p627
sg1
Vgreninja
p628
ssa(dp629
g181
I2
sg178
(dp630
g5
Vhttp://pokeapi.co/api/v2/pokemon/688/
p631
sg1
Vbinacle
p632
ssa(dp633
g181
I2
sg178
(dp634
g5
Vhttp://pokeapi.co/api/v2/pokemon/689/
p635
sg1
Vbarbaracle
p636
ssa(dp637
g181
I2
sg178
(dp638
g5
Vhttp://pokeapi.co/api/v2/pokemon/690/
p639
sg1
Vskrelp
p640
ssa(dp641
g181
I1
sg178
(dp642
g5
Vhttp://pokeapi.co/api/v2/pokemon/692/
p643
sg1
Vclauncher
p644
ssa(dp645
g181
I1
sg178
(dp646
g5
Vhttp://pokeapi.co/api/v2/pokemon/693/
p647
sg1
Vclawitzer
p648
ssa(dp649
g181
I2
sg178
(dp650
g5
Vhttp://pokeapi.co/api/v2/pokemon/721/
p651
sg1
Vvolcanion
p652
ssa(dp653
g181
I2
sg178
(dp654
g5
Vhttp://pokeapi.co/api/v2/pokemon/10009/
p655
sg1
Vrotom-wash
p656
ssa(dp657
g181
I1
sg178
(dp658
g5
Vhttp://pokeapi.co/api/v2/pokemon/10014/
p659
sg1
Vcastform-rainy
p660
ssa(dp661
g181
I1
sg178
(dp662
g5
Vhttp://pokeapi.co/api/v2/pokemon/10016/
p663
sg1
Vbasculin-blue-striped
p664
ssa(dp665
g181
I1
sg178
(dp666
g5
Vhttp://pokeapi.co/api/v2/pokemon/10024/
p667
sg1
Vkeldeo-resolute
p668
ssa(dp669
g181
I1
sg178
(dp670
g5
Vhttp://pokeapi.co/api/v2/pokemon/10036/
p671
sg1
Vblastoise-mega
p672
ssa(dp673
g181
I1
sg178
(dp674
g5
Vhttp://pokeapi.co/api/v2/pokemon/10041/
p675
sg1
Vgyarados-mega
p676
ssa(dp677
g181
I1
sg178
(dp678
g5
Vhttp://pokeapi.co/api/v2/pokemon/10064/
p679
sg1
Vswampert-mega
p680
ssa(dp681
g181
I1
sg178
(dp682
g5
Vhttp://pokeapi.co/api/v2/pokemon/10070/
p683
sg1
Vsharpedo-mega
p684
ssa(dp685
g181
I1
sg178
(dp686
g5
Vhttp://pokeapi.co/api/v2/pokemon/10071/
p687
sg1
Vslowbro-mega
p688
ssa(dp689
g181
I1
sg178
(dp690
g5
Vhttp://pokeapi.co/api/v2/pokemon/10077/
p691
sg1
Vkyogre-primal
p692
ssasVid
p693
I11
sVnames
p694
(lp695
(dp696
g1
V\u307f\u305a
p697
sVlanguage
p698
(dp699
g5
Vhttp://pokeapi.co/api/v2/language/1/
p700
sg1
Vja
p701
ssa(dp702
g1
V\ubb3c
p703
sg698
(dp704
g5
Vhttp://pokeapi.co/api/v2/language/3/
p705
sg1
Vko
p706
ssa(dp707
g1
VEau
p708
sg698
(dp709
g5
Vhttp://pokeapi.co/api/v2/language/5/
p710
sg1
Vfr
p711
ssa(dp712
g1
VWasser
p713
sg698
(dp714
g5
Vhttp://pokeapi.co/api/v2/language/6/
p715
sg1
Vde
p716
ssa(dp717
g1
VAgua
p718
sg698
(dp719
g5
Vhttp://pokeapi.co/api/v2/language/7/
p720
sg1
Ves
p721
ssa(dp722
g1
VAcqua
p723
sg698
(dp724
g5
Vhttp://pokeapi.co/api/v2/language/8/
p725
sg1
Vit
p726
ssa(dp727
g1
VWater
p728
sg698
(dp729
g5
Vhttp://pokeapi.co/api/v2/language/9/
p730
sg1
Ven
p731
ssas.